target datalayout = "e-m:e-p270:32:32-p271:32:32-p272:64:64-i64:64-i128:128-f80:128-n8:16:32:64-S128"
target triple = "x86_64-pc-linux-gnu"

; Function Attrs: nounwind uwtable
define internal float @avifToLinearIEC61966(float noundef %0) #0 {
  %2 = alloca float, align 4
  %3 = alloca float, align 4
  store float %0, ptr %3, align 4
  %4 = load float, ptr %3, align 4
  %5 = fcmp olt float %4, 0xBFB4CC5500000000
  br i1 %5, label %6, label %12

6:                                                ; preds = %1
  %7 = load float, ptr %3, align 4
  %8 = fneg float %7
  %9 = fadd float %8, 0x3FB96B8440000000
  %10 = fdiv float %9, 0xBFF196B840000000
  %11 = call float @powf(float noundef %10, float noundef 0x4001C71C80000000) #4
  store float %11, ptr %2, align 4
  br label %23

12:                                               ; preds = %1
  %13 = load float, ptr %3, align 4
  %14 = fcmp olt float %13, 0x3FB4CC5500000000
  br i1 %14, label %15, label %18

15:                                               ; preds = %12
  %16 = load float, ptr %3, align 4
  %17 = fdiv float %16, 4.500000e+00
  store float %17, ptr %2, align 4
  br label %23

18:                                               ; preds = %12
  %19 = load float, ptr %3, align 4
  %20 = fadd float %19, 0x3FB96B8440000000
  %21 = fdiv float %20, 0x3FF196B840000000
  %22 = call float @powf(float noundef %21, float noundef 0x4001C71C80000000) #4
  store float %22, ptr %2, align 4
  br label %23

23:                                               ; preds = %18, %15, %6
  %24 = load float, ptr %2, align 4
  ret float %24
}