; Function Attrs: mustprogress nofree nounwind willreturn memory(write) uwtable
define internal float @avifToLinearIEC61966(float noundef %0) #5 {
  %2 = fcmp olt float %0, 0xBFB4CC5500000000
  br i1 %2, label %3, label %7

3:                                                ; preds = %1
  %4 = fsub float 0x3FB96B8440000000, %0
  %5 = fdiv float %4, 0xBFF196B840000000
  %6 = tail call float @powf(float noundef %5, float noundef 0x4001C71C80000000) #9
  br label %15

7:                                                ; preds = %1
  %8 = fcmp olt float %0, 0x3FB4CC5500000000
  br i1 %8, label %9, label %11

9:                                                ; preds = %7
  %10 = fdiv float %0, 4.500000e+00
  br label %15

11:                                               ; preds = %7
  %12 = fadd float %0, 0x3FB96B8440000000
  %13 = fdiv float %12, 0x3FF196B840000000
  %14 = tail call float @powf(float noundef %13, float noundef 0x4001C71C80000000) #9
  br label %15

15:                                               ; preds = %11, %9, %3
  %.0 = phi float [ %6, %3 ], [ %10, %9 ], [ %14, %11 ]
  ret float %.0
}